target datalayout = "e-m:e-p270:32:32-p271:32:32-p272:64:64-i64:64-i128:128-f80:128-n8:16:32:64-S128"
target triple = "x86_64-pc-linux-gnu"

%struct.H5C_class_t = type { i32, ptr, i32, i32, ptr, ptr, ptr, ptr, ptr, ptr, ptr, ptr, ptr, ptr }
%struct.H5FS_t = type { %struct.H5C_cache_entry_t, i64, i64, i64, i64, i32, i16, i32, i32, i32, i64, i64, i64, i64, i32, i64, i64, ptr, i8, i32, i8, i8, i32, i64, i64, i64, ptr }
%struct.H5C_cache_entry_t = type { ptr, i64, i64, ptr, i8, ptr, i8, i8, i8, i8, i32, i8, i8, i8, i8, i8, i32, ptr, i32, i32, i32, i32, i32, i8, i8, ptr, ptr, ptr, ptr, ptr, ptr, i8, i32, i8, i64, ptr, i64, i64, i32, i8, i32, i32, i8, ptr, ptr, ptr }
%struct.H5FS_hdr_cache_ud_t = type { ptr, i16, ptr, ptr, i64 }

@.str.2 = private unnamed_addr constant [98 x i8] c"generated/home/dtcxzyw/WorkSpace/Projects/compilers/llvm-opt-benchmark/bench/hdf5/hdf5/src/H5FS.c\00", align 1
@H5AC_FSPACE_HDR = external constant [1 x %struct.H5C_class_t], align 16
@H5E_FSPACE_g = external global i64, align 8
@H5E_CANTFREE_g = external global i64, align 8
@H5E_CANTPROTECT_g = external global i64, align 8
@H5E_CANTUNPROTECT_g = external global i64, align 8
@.str.9 = private unnamed_addr constant [36 x i8] c"unable to release free space header\00", align 1
@__func__.H5FS_delete = private unnamed_addr constant [12 x i8] c"H5FS_delete\00", align 1
@.str.10 = private unnamed_addr constant [36 x i8] c"unable to protect free space header\00", align 1
@H5E_HEAP_g = external global i64, align 8
@H5E_CANTGET_g = external global i64, align 8
@.str.11 = private unnamed_addr constant [66 x i8] c"unable to check metadata cache status for free space section info\00", align 1
@H5AC_FSPACE_SINFO = external constant [1 x %struct.H5C_class_t], align 16
@H5E_CANTREMOVE_g = external global i64, align 8
@.str.12 = private unnamed_addr constant [52 x i8] c"unable to remove free space section info from cache\00", align 1
@.str.13 = private unnamed_addr constant [38 x i8] c"unable to release free space sections\00", align 1

; Function Attrs: nounwind uwtable
define i32 @H5FS_delete(ptr noundef %0, i64 noundef %1) #0 {
  %3 = alloca ptr, align 8
  %4 = alloca i64, align 8
  %5 = alloca ptr, align 8
  %6 = alloca %struct.H5FS_hdr_cache_ud_t, align 8
  %7 = alloca i32, align 4
  %8 = alloca i8, align 1
  %9 = alloca i32, align 4
  %10 = alloca i32, align 4
  store ptr %0, ptr %3, align 8
  store i64 %1, ptr %4, align 8
  store ptr null, ptr %5, align 8
  store i32 0, ptr %7, align 4
  store i8 0, ptr %8, align 1
  %11 = load ptr, ptr %3, align 8
  %12 = getelementptr inbounds %struct.H5FS_hdr_cache_ud_t, ptr %6, i32 0, i32 0
  store ptr %11, ptr %12, align 8
  %13 = getelementptr inbounds %struct.H5FS_hdr_cache_ud_t, ptr %6, i32 0, i32 1
  store i16 0, ptr %13, align 8
  %14 = getelementptr inbounds %struct.H5FS_hdr_cache_ud_t, ptr %6, i32 0, i32 2
  store ptr null, ptr %14, align 8
  %15 = getelementptr inbounds %struct.H5FS_hdr_cache_ud_t, ptr %6, i32 0, i32 3
  store ptr null, ptr %15, align 8
  %16 = load i64, ptr %4, align 8
  %17 = getelementptr inbounds %struct.H5FS_hdr_cache_ud_t, ptr %6, i32 0, i32 4
  store i64 %16, ptr %17, align 8
  %18 = load ptr, ptr %3, align 8
  %19 = load i64, ptr %4, align 8
  %20 = call ptr @H5AC_protect(ptr noundef %18, ptr noundef @H5AC_FSPACE_HDR, i64 noundef %19, ptr noundef %6, i32 noundef 0)
  store ptr %20, ptr %5, align 8
  %21 = icmp eq ptr null, %20
  br i1 %21, label %22, label %37

22:                                               ; preds = %2
  br label %23

23:                                               ; preds = %22
  br label %24

24:                                               ; preds = %23
  br label %25

25:                                               ; preds = %24
  %26 = load i64, ptr @H5E_FSPACE_g, align 8
  %27 = load i64, ptr @H5E_CANTPROTECT_g, align 8
  %28 = call i32 (ptr, ptr, i32, i64, i64, ptr, ...) @H5E_printf_stack(ptr noundef @.str.2, ptr noundef @__func__.H5FS_delete, i32 noundef 303, i64 noundef %26, i64 noundef %27, ptr noundef @.str.10)
  br label %29

29:                                               ; preds = %25
  store i8 1, ptr %8, align 1
  %30 = load i8, ptr %8, align 1
  %31 = trunc i8 %30 to i1
  %32 = zext i1 %31 to i8
  store i8 %32, ptr %8, align 1
  br label %33

33:                                               ; preds = %29
  br label %34

34:                                               ; preds = %33
  store i32 -1, ptr %7, align 4
  br label %136

35:                                               ; No predecessors!
  br label %36

36:                                               ; preds = %35
  br label %37

37:                                               ; preds = %36, %2
  %38 = load ptr, ptr %5, align 8
  %39 = getelementptr inbounds %struct.H5FS_t, ptr %38, i32 0, i32 3
  %40 = load i64, ptr %39, align 8
  %41 = icmp ugt i64 %40, 0
  br i1 %41, label %42, label %135

42:                                               ; preds = %37
  store i32 0, ptr %9, align 4
  %43 = load ptr, ptr %3, align 8
  %44 = load ptr, ptr %5, align 8
  %45 = getelementptr inbounds %struct.H5FS_t, ptr %44, i32 0, i32 11
  %46 = load i64, ptr %45, align 8
  %47 = call i32 @H5AC_get_entry_status(ptr noundef %43, i64 noundef %46, ptr noundef %9)
  %48 = icmp slt i32 %47, 0
  br i1 %48, label %49, label %64

49:                                               ; preds = %42
  br label %50

50:                                               ; preds = %49
  br label %51

51:                                               ; preds = %50
  br label %52

52:                                               ; preds = %51
  %53 = load i64, ptr @H5E_HEAP_g, align 8
  %54 = load i64, ptr @H5E_CANTGET_g, align 8
  %55 = call i32 (ptr, ptr, i32, i64, i64, ptr, ...) @H5E_printf_stack(ptr noundef @.str.2, ptr noundef @__func__.H5FS_delete, i32 noundef 322, i64 noundef %53, i64 noundef %54, ptr noundef @.str.11)
  br label %56

56:                                               ; preds = %52
  store i8 1, ptr %8, align 1
  %57 = load i8, ptr %8, align 1
  %58 = trunc i8 %57 to i1
  %59 = zext i1 %58 to i8
  store i8 %59, ptr %8, align 1
  br label %60

60:                                               ; preds = %56
  br label %61

61:                                               ; preds = %60
  store i32 -1, ptr %7, align 4
  br label %136

62:                                               ; No predecessors!
  br label %63

63:                                               ; preds = %62
  br label %64

64:                                               ; preds = %63, %42
  %65 = load i32, ptr %9, align 4
  %66 = and i32 %65, 1
  %67 = icmp ne i32 %66, 0
  br i1 %67, label %68, label %101

68:                                               ; preds = %64
  store i32 0, ptr %10, align 4
  %69 = load ptr, ptr %3, align 8
  %70 = load ptr, ptr %5, align 8
  %71 = getelementptr inbounds %struct.H5FS_t, ptr %70, i32 0, i32 11
  %72 = load i64, ptr %71, align 8
  %73 = call zeroext i1 @H5F_is_tmp_addr(ptr noundef %69, i64 noundef %72)
  br i1 %73, label %77, label %74

74:                                               ; preds = %68
  %75 = load i32, ptr %10, align 4
  %76 = or i32 %75, 256
  store i32 %76, ptr %10, align 4
  br label %77

77:                                               ; preds = %74, %68
  %78 = load ptr, ptr %3, align 8
  %79 = load ptr, ptr %5, align 8
  %80 = getelementptr inbounds %struct.H5FS_t, ptr %79, i32 0, i32 11
  %81 = load i64, ptr %80, align 8
  %82 = load i32, ptr %10, align 4
  %83 = call i32 @H5AC_expunge_entry(ptr noundef %78, ptr noundef @H5AC_FSPACE_SINFO, i64 noundef %81, i32 noundef %82)
  %84 = icmp slt i32 %83, 0
  br i1 %84, label %85, label %100

85:                                               ; preds = %77
  br label %86

86:                                               ; preds = %85
  br label %87

87:                                               ; preds = %86
  br label %88

88:                                               ; preds = %87
  %89 = load i64, ptr @H5E_HEAP_g, align 8
  %90 = load i64, ptr @H5E_CANTREMOVE_g, align 8
  %91 = call i32 (ptr, ptr, i32, i64, i64, ptr, ...) @H5E_printf_stack(ptr noundef @.str.2, ptr noundef @__func__.H5FS_delete, i32 noundef 346, i64 noundef %89, i64 noundef %90, ptr noundef @.str.12)
  br label %92

92:                                               ; preds = %88
  store i8 1, ptr %8, align 1
  %93 = load i8, ptr %8, align 1
  %94 = trunc i8 %93 to i1
  %95 = zext i1 %94 to i8
  store i8 %95, ptr %8, align 1
  br label %96

96:                                               ; preds = %92
  br label %97

97:                                               ; preds = %96
  store i32 -1, ptr %7, align 4
  br label %136

98:                                               ; No predecessors!
  br label %99

99:                                               ; preds = %98
  br label %100

100:                                              ; preds = %99, %77
  br label %134

101:                                              ; preds = %64
  %102 = load ptr, ptr %3, align 8
  %103 = load ptr, ptr %5, align 8
  %104 = getelementptr inbounds %struct.H5FS_t, ptr %103, i32 0, i32 11
  %105 = load i64, ptr %104, align 8
  %106 = call zeroext i1 @H5F_is_tmp_addr(ptr noundef %102, i64 noundef %105)
  br i1 %106, label %133, label %107

107:                                              ; preds = %101
  %108 = load ptr, ptr %3, align 8
  %109 = load ptr, ptr %5, align 8
  %110 = getelementptr inbounds %struct.H5FS_t, ptr %109, i32 0, i32 11
  %111 = load i64, ptr %110, align 8
  %112 = load ptr, ptr %5, align 8
  %113 = getelementptr inbounds %struct.H5FS_t, ptr %112, i32 0, i32 13
  %114 = load i64, ptr %113, align 8
  %115 = call i32 @H5MF_xfree(ptr noundef %108, i32 noundef 5, i64 noundef %111, i64 noundef %114)
  %116 = icmp slt i32 %115, 0
  br i1 %116, label %117, label %132

117:                                              ; preds = %107
  br label %118

118:                                              ; preds = %117
  br label %119

119:                                              ; preds = %118
  br label %120

120:                                              ; preds = %119
  %121 = load i64, ptr @H5E_FSPACE_g, align 8
  %122 = load i64, ptr @H5E_CANTFREE_g, align 8
  %123 = call i32 (ptr, ptr, i32, i64, i64, ptr, ...) @H5E_printf_stack(ptr noundef @.str.2, ptr noundef @__func__.H5FS_delete, i32 noundef 360, i64 noundef %121, i64 noundef %122, ptr noundef @.str.13)
  br label %124

124:                                              ; preds = %120
  store i8 1, ptr %8, align 1
  %125 = load i8, ptr %8, align 1
  %126 = trunc i8 %125 to i1
  %127 = zext i1 %126 to i8
  store i8 %127, ptr %8, align 1
  br label %128

128:                                              ; preds = %124
  br label %129

129:                                              ; preds = %128
  store i32 -1, ptr %7, align 4
  br label %136

130:                                              ; No predecessors!
  br label %131

131:                                              ; preds = %130
  br label %132

132:                                              ; preds = %131, %107
  br label %133

133:                                              ; preds = %132, %101
  br label %134

134:                                              ; preds = %133, %100
  br label %135

135:                                              ; preds = %134, %37
  br label %136

136:                                              ; preds = %135, %129, %97, %61, %34
  %137 = load ptr, ptr %5, align 8
  %138 = icmp ne ptr %137, null
  br i1 %138, label %139, label %158

139:                                              ; preds = %136
  %140 = load ptr, ptr %3, align 8
  %141 = load i64, ptr %4, align 8
  %142 = load ptr, ptr %5, align 8
  %143 = call i32 @H5AC_unprotect(ptr noundef %140, ptr noundef @H5AC_FSPACE_HDR, i64 noundef %141, ptr noundef %142, i32 noundef 257)
  %144 = icmp slt i32 %143, 0
  br i1 %144, label %145, label %158

145:                                              ; preds = %139
  br label %146

146:                                              ; preds = %145
  br label %147

147:                                              ; preds = %146
  br label %148

148:                                              ; preds = %147
  %149 = load i64, ptr @H5E_FSPACE_g, align 8
  %150 = load i64, ptr @H5E_CANTUNPROTECT_g, align 8
  %151 = call i32 (ptr, ptr, i32, i64, i64, ptr, ...) @H5E_printf_stack(ptr noundef @.str.2, ptr noundef @__func__.H5FS_delete, i32 noundef 367, i64 noundef %149, i64 noundef %150, ptr noundef @.str.9)
  br label %152

152:                                              ; preds = %148
  store i8 1, ptr %8, align 1
  %153 = load i8, ptr %8, align 1
  %154 = trunc i8 %153 to i1
  %155 = zext i1 %154 to i8
  store i8 %155, ptr %8, align 1
  br label %156

156:                                              ; preds = %152
  store i32 -1, ptr %7, align 4
  br label %157

157:                                              ; preds = %156
  br label %158

158:                                              ; preds = %157, %139, %136
  %159 = load i32, ptr %7, align 4
  ret i32 %159
}