; Function Attrs: nounwind uwtable
define range(i32 -1, 1) i32 @H5FS_delete(ptr noundef %0, i64 noundef %1) local_unnamed_addr #0 {
  %3 = alloca %struct.H5FS_hdr_cache_ud_t, align 8
  %4 = alloca i32, align 4
  store ptr %0, ptr %3, align 8
  %5 = getelementptr inbounds i8, ptr %3, i64 8
  store i16 0, ptr %5, align 8
  %6 = getelementptr inbounds i8, ptr %3, i64 16
  %7 = getelementptr inbounds i8, ptr %3, i64 32
  call void @llvm.memset.p0.i64(ptr noundef nonnull align 8 dereferenceable(16) %6, i8 0, i64 16, i1 false)
  store i64 %1, ptr %7, align 8
  %8 = call ptr @H5AC_protect(ptr noundef %0, ptr noundef nonnull @H5AC_FSPACE_HDR, i64 noundef %1, ptr noundef nonnull %3, i32 noundef 0) #5
  %9 = icmp eq ptr %8, null
  br i1 %9, label %46, label %10

10:                                               ; preds = %2
  %11 = getelementptr inbounds i8, ptr %8, i64 264
  %12 = load i64, ptr %11, align 8
  %.not = icmp eq i64 %12, 0
  br i1 %.not, label %50, label %13

13:                                               ; preds = %10
  store i32 0, ptr %4, align 4
  %14 = getelementptr inbounds i8, ptr %8, i64 312
  %15 = load i64, ptr %14, align 8
  %16 = call i32 @H5AC_get_entry_status(ptr noundef %0, i64 noundef %15, ptr noundef nonnull %4) #5
  %17 = icmp slt i32 %16, 0
  br i1 %17, label %18, label %22

18:                                               ; preds = %13
  %19 = load i64, ptr @H5E_HEAP_g, align 8
  %20 = load i64, ptr @H5E_CANTGET_g, align 8
  %21 = call i32 (ptr, ptr, i32, i64, i64, ptr, ...) @H5E_printf_stack(ptr noundef nonnull @.str.2, ptr noundef nonnull @__func__.H5FS_delete, i32 noundef 322, i64 noundef %19, i64 noundef %20, ptr noundef nonnull @.str.11) #5
  br label %50

22:                                               ; preds = %13
  %23 = load i32, ptr %4, align 4
  %24 = and i32 %23, 1
  %.not30 = icmp eq i32 %24, 0
  %25 = load i64, ptr %14, align 8
  %26 = call zeroext i1 @H5F_is_tmp_addr(ptr noundef %0, i64 noundef %25) #5
  br i1 %.not30, label %35, label %27

27:                                               ; preds = %22
  %spec.select = select i1 %26, i32 0, i32 256
  %28 = load i64, ptr %14, align 8
  %29 = call i32 @H5AC_expunge_entry(ptr noundef %0, ptr noundef nonnull @H5AC_FSPACE_SINFO, i64 noundef %28, i32 noundef %spec.select) #5
  %30 = icmp slt i32 %29, 0
  br i1 %30, label %31, label %50

31:                                               ; preds = %27
  %32 = load i64, ptr @H5E_HEAP_g, align 8
  %33 = load i64, ptr @H5E_CANTREMOVE_g, align 8
  %34 = call i32 (ptr, ptr, i32, i64, i64, ptr, ...) @H5E_printf_stack(ptr noundef nonnull @.str.2, ptr noundef nonnull @__func__.H5FS_delete, i32 noundef 346, i64 noundef %32, i64 noundef %33, ptr noundef nonnull @.str.12) #5
  br label %50

35:                                               ; preds = %22
  br i1 %26, label %50, label %36

36:                                               ; preds = %35
  %37 = load i64, ptr %14, align 8
  %38 = getelementptr inbounds i8, ptr %8, i64 328
  %39 = load i64, ptr %38, align 8
  %40 = call i32 @H5MF_xfree(ptr noundef %0, i32 noundef 5, i64 noundef %37, i64 noundef %39) #5
  %41 = icmp slt i32 %40, 0
  br i1 %41, label %42, label %50

42:                                               ; preds = %36
  %43 = load i64, ptr @H5E_FSPACE_g, align 8
  %44 = load i64, ptr @H5E_CANTFREE_g, align 8
  %45 = call i32 (ptr, ptr, i32, i64, i64, ptr, ...) @H5E_printf_stack(ptr noundef nonnull @.str.2, ptr noundef nonnull @__func__.H5FS_delete, i32 noundef 360, i64 noundef %43, i64 noundef %44, ptr noundef nonnull @.str.13) #5
  br label %50

46:                                               ; preds = %2
  %47 = load i64, ptr @H5E_FSPACE_g, align 8
  %48 = load i64, ptr @H5E_CANTPROTECT_g, align 8
  %49 = call i32 (ptr, ptr, i32, i64, i64, ptr, ...) @H5E_printf_stack(ptr noundef nonnull @.str.2, ptr noundef nonnull @__func__.H5FS_delete, i32 noundef 303, i64 noundef %47, i64 noundef %48, ptr noundef nonnull @.str.10) #5
  br label %57

50:                                               ; preds = %10, %35, %36, %27, %42, %31, %18
  %.027.ph = phi i32 [ 0, %10 ], [ 0, %36 ], [ -1, %42 ], [ 0, %35 ], [ 0, %27 ], [ -1, %31 ], [ -1, %18 ]
  %51 = call i32 @H5AC_unprotect(ptr noundef %0, ptr noundef nonnull @H5AC_FSPACE_HDR, i64 noundef %1, ptr noundef nonnull %8, i32 noundef 257) #5
  %52 = icmp slt i32 %51, 0
  br i1 %52, label %53, label %57

53:                                               ; preds = %50
  %54 = load i64, ptr @H5E_FSPACE_g, align 8
  %55 = load i64, ptr @H5E_CANTUNPROTECT_g, align 8
  %56 = call i32 (ptr, ptr, i32, i64, i64, ptr, ...) @H5E_printf_stack(ptr noundef nonnull @.str.2, ptr noundef nonnull @__func__.H5FS_delete, i32 noundef 367, i64 noundef %54, i64 noundef %55, ptr noundef nonnull @.str.9) #5
  br label %57

57:                                               ; preds = %46, %53, %50
  %.1 = phi i32 [ -1, %53 ], [ %.027.ph, %50 ], [ -1, %46 ]
  ret i32 %.1
}